; Function Attrs: mustprogress uwtable
define dso_local noundef zeroext i1 @_ZN7cmCTest31ColoredOutputSupportedByConsoleEv() local_unnamed_addr #3 align 2 personality ptr @__gxx_personality_v0 {
  %1 = alloca %"class.std::__cxx11::basic_string", align 8
  %2 = alloca %"class.std::__cxx11::basic_string", align 8
  %3 = alloca %"class.std::__cxx11::basic_string", align 8
  call void @_ZNSt7__cxx1112basic_stringIcSt11char_traitsIcESaIcEEC1Ev(ptr noundef nonnull align 8 dereferenceable(32) %2) #28
  %4 = invoke noundef zeroext i1 @_ZN5cmsys11SystemTools6GetEnvEPKcRNSt7__cxx1112basic_stringIcSt11char_traitsIcESaIcEEE(ptr noundef nonnull @.str.334, ptr noundef nonnull align 8 dereferenceable(32) %2)
          to label %5 unwind label %10

5:                                                ; preds = %0
  br i1 %4, label %6, label %12

6:                                                ; preds = %5
  %7 = call noundef zeroext i1 @_ZNKSt7__cxx1112basic_stringIcSt11char_traitsIcESaIcEE5emptyEv(ptr noundef nonnull align 8 dereferenceable(32) %2) #28
  br i1 %7, label %12, label %8

8:                                                ; preds = %6
  %9 = call noundef i32 @_ZNKSt7__cxx1112basic_stringIcSt11char_traitsIcESaIcEE7compareEPKc(ptr noundef nonnull align 8 dereferenceable(32) %2, ptr noundef nonnull @.str.335) #28
  %.not = icmp eq i32 %9, 0
  br i1 %.not, label %12, label %31

10:                                               ; preds = %0
  %11 = landingpad { ptr, i32 }
          cleanup
  br label %32

12:                                               ; preds = %8, %6, %5
  call void @_ZNSt7__cxx1112basic_stringIcSt11char_traitsIcESaIcEEC1Ev(ptr noundef nonnull align 8 dereferenceable(32) %3) #28
  %13 = invoke noundef zeroext i1 @_ZN5cmsys11SystemTools6GetEnvEPKcRNSt7__cxx1112basic_stringIcSt11char_traitsIcESaIcEEE(ptr noundef nonnull @.str.336, ptr noundef nonnull align 8 dereferenceable(32) %3)
          to label %14 unwind label %18

14:                                               ; preds = %12
  br i1 %13, label %15, label %20

15:                                               ; preds = %14
  %16 = call noundef i32 @_ZNKSt7__cxx1112basic_stringIcSt11char_traitsIcESaIcEE7compareEPKc(ptr noundef nonnull align 8 dereferenceable(32) %3, ptr noundef nonnull @.str.335) #28
  %17 = icmp eq i32 %16, 0
  br i1 %17, label %30, label %20

18:                                               ; preds = %12
  %19 = landingpad { ptr, i32 }
          cleanup
  br label %.body

.body:                                            ; preds = %28, %18
  %eh.lpad-body = phi { ptr, i32 } [ %19, %18 ], [ %29, %28 ]
  call void @_ZNSt7__cxx1112basic_stringIcSt11char_traitsIcESaIcEED1Ev(ptr noundef nonnull align 8 dereferenceable(32) %3) #28
  br label %32

20:                                               ; preds = %15, %14
  call void @llvm.lifetime.start.p0(i64 32, ptr nonnull %1)
  call void @_ZNSt7__cxx1112basic_stringIcSt11char_traitsIcESaIcEEC1Ev(ptr noundef nonnull align 8 dereferenceable(32) %1) #28
  %21 = invoke noundef zeroext i1 @_ZN5cmsys11SystemTools6GetEnvEPKcRNSt7__cxx1112basic_stringIcSt11char_traitsIcESaIcEEE(ptr noundef nonnull @.str.332, ptr noundef nonnull align 8 dereferenceable(32) %1)
          to label %22 unwind label %28

22:                                               ; preds = %20
  br i1 %21, label %23, label %_ZN7cmCTest16ConsoleIsNotDumbEv.exit

23:                                               ; preds = %22
  %24 = call i32 @isatty(i32 noundef 1) #28
  %.not.i = icmp eq i32 %24, 0
  br i1 %.not.i, label %_ZN7cmCTest16ConsoleIsNotDumbEv.exit, label %25

25:                                               ; preds = %23
  %26 = call noundef i32 @_ZNKSt7__cxx1112basic_stringIcSt11char_traitsIcESaIcEE7compareEPKc(ptr noundef nonnull align 8 dereferenceable(32) %1, ptr noundef nonnull @.str.333) #28
  %27 = icmp ne i32 %26, 0
  br label %_ZN7cmCTest16ConsoleIsNotDumbEv.exit

28:                                               ; preds = %20
  %29 = landingpad { ptr, i32 }
          cleanup
  call void @_ZNSt7__cxx1112basic_stringIcSt11char_traitsIcESaIcEED1Ev(ptr noundef nonnull align 8 dereferenceable(32) %1) #28
  br label %.body

_ZN7cmCTest16ConsoleIsNotDumbEv.exit:             ; preds = %22, %23, %25
  %.0.i = phi i1 [ false, %23 ], [ %27, %25 ], [ false, %22 ]
  call void @_ZNSt7__cxx1112basic_stringIcSt11char_traitsIcESaIcEED1Ev(ptr noundef nonnull align 8 dereferenceable(32) %1) #28
  call void @llvm.lifetime.end.p0(i64 32, ptr nonnull %1)
  br label %30

30:                                               ; preds = %_ZN7cmCTest16ConsoleIsNotDumbEv.exit, %15
  %.03 = phi i1 [ false, %15 ], [ %.0.i, %_ZN7cmCTest16ConsoleIsNotDumbEv.exit ]
  call void @_ZNSt7__cxx1112basic_stringIcSt11char_traitsIcESaIcEED1Ev(ptr noundef nonnull align 8 dereferenceable(32) %3) #28
  br label %31

31:                                               ; preds = %8, %30
  %.1 = phi i1 [ %.03, %30 ], [ true, %8 ]
  call void @_ZNSt7__cxx1112basic_stringIcSt11char_traitsIcESaIcEED1Ev(ptr noundef nonnull align 8 dereferenceable(32) %2) #28
  ret i1 %.1

32:                                               ; preds = %.body, %10
  %.pn = phi { ptr, i32 } [ %eh.lpad-body, %.body ], [ %11, %10 ]
  call void @_ZNSt7__cxx1112basic_stringIcSt11char_traitsIcESaIcEED1Ev(ptr noundef nonnull align 8 dereferenceable(32) %2) #28
  resume { ptr, i32 } %.pn
}